; Function Attrs: nounwind sspstrong uwtable
define dso_local void @bdrv_release_named_dirty_bitmaps(ptr noundef %bs) local_unnamed_addr #0 {
entry:
  %0 = load atomic i64, ptr @qemu_mutex_lock_func monotonic, align 8
  %1 = inttoptr i64 %0 to ptr
  %dirty_bitmap_mutex.i = getelementptr inbounds nuw i8, ptr %bs, i64 16904
  tail call void %1(ptr noundef nonnull %dirty_bitmap_mutex.i, ptr noundef nonnull @.str.1, i32 noundef 66) #14
  %dirty_bitmaps = getelementptr inbounds nuw i8, ptr %bs, i64 16952
  %2 = load ptr, ptr %dirty_bitmaps, align 8
  %tobool.not7 = icmp eq ptr %2, null
  br i1 %tobool.not7, label %for.end, label %land.rhs

land.rhs:                                         ; preds = %entry, %for.inc
  %bm.08 = phi ptr [ %3, %for.inc ], [ %2, %entry ]
  %list = getelementptr inbounds nuw i8, ptr %bm.08, i64 64
  %3 = load ptr, ptr %list, align 8
  %name.i = getelementptr inbounds nuw i8, ptr %bm.08, i64 32
  %4 = load ptr, ptr %name.i, align 8
  %tobool1.not = icmp eq ptr %4, null
  br i1 %tobool1.not, label %for.inc, label %if.then

if.then:                                          ; preds = %land.rhs
  tail call fastcc void @bdrv_release_dirty_bitmap_locked(ptr noundef nonnull %bm.08)
  br label %for.inc

for.inc:                                          ; preds = %land.rhs, %if.then
  %tobool.not = icmp eq ptr %3, null
  br i1 %tobool.not, label %for.end, label %land.rhs, !llvm.loop !8

for.end:                                          ; preds = %for.inc, %entry
  tail call void @qemu_mutex_unlock_impl(ptr noundef nonnull %dirty_bitmap_mutex.i, ptr noundef nonnull @.str.1, i32 noundef 71) #14
  ret void
}